target datalayout = "e-m:e-p270:32:32-p271:32:32-p272:64:64-i64:64-i128:128-f80:128-n8:16:32:64-S128"
target triple = "x86_64-pc-linux-gnu"

%"struct.mitsuba::ThreadNotifier" = type { i8 }
%"class.std::__1::basic_string" = type { %"class.std::__1::__compressed_pair.10" }
%"class.std::__1::__compressed_pair.10" = type { %"struct.std::__1::__compressed_pair_elem.11" }
%"struct.std::__1::__compressed_pair_elem.11" = type { %"struct.std::__1::basic_string<char>::__rep" }
%"struct.std::__1::basic_string<char>::__rep" = type { %union.anon }
%union.anon = type { %"struct.std::__1::basic_string<char>::__long" }
%"struct.std::__1::basic_string<char>::__long" = type { %struct.anon.12, i64, ptr }
%struct.anon.12 = type { i64 }
%"class.mitsuba::Thread" = type { %"class.mitsuba::Object.base", %"class.std::__1::unique_ptr" }
%"class.mitsuba::Object.base" = type <{ ptr, %"struct.std::__1::atomic.2" }>
%"struct.std::__1::atomic.2" = type { %"struct.std::__1::__atomic_base.3" }
%"struct.std::__1::__atomic_base.3" = type { %"struct.std::__1::__atomic_base.4" }
%"struct.std::__1::__atomic_base.4" = type { %"struct.std::__1::__cxx_atomic_impl.5" }
%"struct.std::__1::__cxx_atomic_impl.5" = type { %"struct.std::__1::__cxx_atomic_base_impl.6" }
%"struct.std::__1::__cxx_atomic_base_impl.6" = type { i32 }
%"class.std::__1::unique_ptr" = type { %"class.std::__1::__compressed_pair.7" }
%"class.std::__1::__compressed_pair.7" = type { %"struct.std::__1::__compressed_pair_elem.8" }
%"struct.std::__1::__compressed_pair_elem.8" = type { ptr }
%"struct.mitsuba::Thread::ThreadPrivate" = type { %"class.std::__1::thread", i64, %"class.std::__1::basic_string", i8, i8, i8, i32, i32, %"class.mitsuba::ref", %"class.mitsuba::ref.17", %"class.mitsuba::ref.18" }
%"class.std::__1::thread" = type { i64 }
%"class.mitsuba::ref" = type { ptr }
%"class.mitsuba::ref.17" = type { ptr }
%"class.mitsuba::ref.18" = type { ptr }
%"class.mitsuba::Logger" = type { %"class.mitsuba::Object.base", i32, %"class.std::__1::unique_ptr.19" }
%"class.std::__1::unique_ptr.19" = type { %"class.std::__1::__compressed_pair.20" }
%"class.std::__1::__compressed_pair.20" = type { %"struct.std::__1::__compressed_pair_elem.21" }
%"struct.std::__1::__compressed_pair_elem.21" = type { ptr }

@_ZN7mitsubaL8notifierE = internal thread_local global %"struct.mitsuba::ThreadNotifier" zeroinitializer, align 1
@_ZN7mitsuba6Thread7m_classE = global ptr null, align 8
@.str = private unnamed_addr constant [115 x i8] c"generated/home/dtcxzyw/WorkSpace/Projects/compilers/llvm-opt-benchmark/bench/mitsuba3/mitsuba3/src/core/thread.cpp\00", align 1
@_ZN7mitsubaL4selfE = internal thread_local global ptr null, align 8
@.str.15 = private unnamed_addr constant [25 x i8] c"Thread \22%s\22 has finished\00", align 1
@_ZTHN7mitsubaL8notifierE = internal alias void (), ptr @__tls_init

; Function Attrs: mustprogress nounwind uwtable
define linkonce_odr hidden noundef nonnull align 8 dereferenceable(8) ptr @_ZNKSt3__122__compressed_pair_elemIPN7mitsuba6Thread13ThreadPrivateELi0ELb0EE5__getB8ne190000Ev(ptr noundef nonnull align 8 dereferenceable(8) %0) #1 comdat align 2 {
  %2 = alloca ptr, align 8
  store ptr %0, ptr %2, align 8
  %3 = load ptr, ptr %2, align 8
  %4 = getelementptr inbounds %"struct.std::__1::__compressed_pair_elem.8", ptr %3, i32 0, i32 0
  ret ptr %4
}

; Function Attrs: mustprogress nounwind uwtable
define linkonce_odr hidden noundef ptr @_ZN7mitsuba3refINS_6LoggerEEcvPS1_Ev(ptr noundef nonnull align 8 dereferenceable(8) %0) #1 comdat align 2 {
  %2 = alloca ptr, align 8
  store ptr %0, ptr %2, align 8
  %3 = load ptr, ptr %2, align 8
  %4 = getelementptr inbounds %"class.mitsuba::ref", ptr %3, i32 0, i32 0
  %5 = load ptr, ptr %4, align 8
  ret ptr %5
}

; Function Attrs: mustprogress nounwind uwtable
define linkonce_odr hidden void @_ZN7mitsuba14ThreadNotifier18ensure_initializedEv(ptr noundef nonnull align 1 dereferenceable(1) %0) #1 comdat align 2 {
  %2 = alloca ptr, align 8
  store ptr %0, ptr %2, align 8
  ret void
}

; Function Attrs: uwtable
define internal noundef ptr @_ZTWN7mitsubaL8notifierE() #10 {
  call void @_ZTHN7mitsubaL8notifierE()
  %1 = call align 1 ptr @llvm.threadlocal.address.p0(ptr align 1 @_ZN7mitsubaL8notifierE)
  ret ptr %1
}

; Function Attrs: mustprogress nounwind uwtable
define linkonce_odr hidden noundef nonnull align 8 dereferenceable(8) ptr @_ZNKSt3__117__compressed_pairIPN7mitsuba6Thread13ThreadPrivateENS_14default_deleteIS3_EEE5firstB8ne190000Ev(ptr noundef nonnull align 8 dereferenceable(8) %0) #1 comdat align 2 {
  %2 = alloca ptr, align 8
  store ptr %0, ptr %2, align 8
  %3 = load ptr, ptr %2, align 8
  %4 = call noundef nonnull align 8 dereferenceable(8) ptr @_ZNKSt3__122__compressed_pair_elemIPN7mitsuba6Thread13ThreadPrivateELi0ELb0EE5__getB8ne190000Ev(ptr noundef nonnull align 8 dereferenceable(8) %3) #2
  ret ptr %4
}

; Function Attrs: mustprogress nounwind uwtable
define linkonce_odr noundef i32 @_ZNK7mitsuba6Logger9log_levelEv(ptr noundef nonnull align 8 dereferenceable(24) %0) #1 comdat align 2 {
  %2 = alloca ptr, align 8
  store ptr %0, ptr %2, align 8
  %3 = load ptr, ptr %2, align 8
  %4 = getelementptr inbounds %"class.mitsuba::Logger", ptr %3, i32 0, i32 1
  %5 = load i32, ptr %4, align 4
  ret i32 %5
}

; Function Attrs: mustprogress uwtable
define noundef ptr @_ZN7mitsuba6Thread6loggerEv(ptr noundef nonnull align 8 dereferenceable(24) %0) #3 align 2 {
  %2 = alloca ptr, align 8
  store ptr %0, ptr %2, align 8
  %3 = load ptr, ptr %2, align 8
  %4 = getelementptr inbounds %"class.mitsuba::Thread", ptr %3, i32 0, i32 1
  %5 = call noundef ptr @_ZNKSt3__110unique_ptrIN7mitsuba6Thread13ThreadPrivateENS_14default_deleteIS3_EEEptB8ne190000Ev(ptr noundef nonnull align 8 dereferenceable(8) %4) #2
  %6 = getelementptr inbounds %"struct.mitsuba::Thread::ThreadPrivate", ptr %5, i32 0, i32 8
  %7 = call noundef ptr @_ZN7mitsuba3refINS_6LoggerEEcvPS1_Ev(ptr noundef nonnull align 8 dereferenceable(8) %6)
  ret ptr %7
}

; Function Attrs: mustprogress uwtable
define noundef ptr @_ZN7mitsuba6Thread6threadEv() #3 align 2 {
  %1 = alloca ptr, align 8
  %2 = call ptr @_ZTWN7mitsubaL8notifierE()
  call void @_ZN7mitsuba14ThreadNotifier18ensure_initializedEv(ptr noundef nonnull align 1 dereferenceable(1) %2)
  %3 = call align 8 ptr @llvm.threadlocal.address.p0(ptr align 8 @_ZN7mitsubaL4selfE)
  %4 = load ptr, ptr %3, align 8
  store ptr %4, ptr %1, align 8
  %5 = load ptr, ptr %1, align 8
  ret ptr %5
}

; Function Attrs: mustprogress nounwind uwtable
define linkonce_odr hidden noundef ptr @_ZNKSt3__110unique_ptrIN7mitsuba6Thread13ThreadPrivateENS_14default_deleteIS3_EEEptB8ne190000Ev(ptr noundef nonnull align 8 dereferenceable(8) %0) #1 comdat align 2 {
  %2 = alloca ptr, align 8
  store ptr %0, ptr %2, align 8
  %3 = load ptr, ptr %2, align 8
  %4 = getelementptr inbounds %"class.std::__1::unique_ptr", ptr %3, i32 0, i32 0
  %5 = call noundef nonnull align 8 dereferenceable(8) ptr @_ZNKSt3__117__compressed_pairIPN7mitsuba6Thread13ThreadPrivateENS_14default_deleteIS3_EEE5firstB8ne190000Ev(ptr noundef nonnull align 8 dereferenceable(8) %4) #2
  %6 = load ptr, ptr %5, align 8
  ret ptr %6
}

; Function Attrs: mustprogress uwtable
define void @_ZN7mitsuba6Thread4exitEv(ptr noundef nonnull align 8 dereferenceable(24) %0) #3 align 2 personality ptr @__gxx_personality_v0 {
  %2 = alloca i32, align 4
  %3 = alloca ptr, align 8
  %4 = alloca ptr, align 8
  %5 = alloca i32, align 4
  %6 = alloca ptr, align 8
  %7 = alloca ptr, align 8
  %8 = alloca ptr, align 8
  %9 = alloca %"class.std::__1::basic_string", align 8
  %10 = alloca ptr, align 8
  %11 = alloca i32, align 4
  %12 = alloca ptr, align 8
  store ptr %0, ptr %12, align 8
  %13 = load ptr, ptr %12, align 8
  br label %14

14:                                               ; preds = %1
  %15 = load ptr, ptr @_ZN7mitsuba6Thread7m_classE, align 8
  %16 = getelementptr inbounds %"class.mitsuba::Thread", ptr %13, i32 0, i32 1
  %17 = call noundef ptr @_ZNKSt3__110unique_ptrIN7mitsuba6Thread13ThreadPrivateENS_14default_deleteIS3_EEEptB8ne190000Ev(ptr noundef nonnull align 8 dereferenceable(8) %16) #2
  %18 = getelementptr inbounds %"struct.mitsuba::Thread::ThreadPrivate", ptr %17, i32 0, i32 2
  store i32 100, ptr %2, align 4
  store ptr %15, ptr %3, align 8
  store ptr @.str, ptr %4, align 8
  store i32 434, ptr %5, align 4
  store ptr @.str.15, ptr %6, align 8
  store ptr %18, ptr %7, align 8
  %19 = call noundef ptr @_ZN7mitsuba6Thread6threadEv()
  %20 = call noundef ptr @_ZN7mitsuba6Thread6loggerEv(ptr noundef nonnull align 8 dereferenceable(24) %19)
  store ptr %20, ptr %8, align 8
  %21 = load ptr, ptr %8, align 8
  %22 = icmp ne ptr %21, null
  br i1 %22, label %23, label %45

23:                                               ; preds = %14
  %24 = load i32, ptr %2, align 4
  %25 = load ptr, ptr %8, align 8
  %26 = call noundef i32 @_ZNK7mitsuba6Logger9log_levelEv(ptr noundef nonnull align 8 dereferenceable(24) %25)
  %27 = icmp sge i32 %24, %26
  br i1 %27, label %28, label %45

28:                                               ; preds = %23
  %29 = load ptr, ptr %8, align 8
  %30 = load i32, ptr %2, align 4
  %31 = load ptr, ptr %3, align 8
  %32 = load ptr, ptr %4, align 8
  %33 = load i32, ptr %5, align 4
  %34 = load ptr, ptr %6, align 8
  %35 = load ptr, ptr %7, align 8
  call void @_ZN10tinyformat6formatIJNSt3__112basic_stringIcNS1_11char_traitsIcEENS1_9allocatorIcEEEEEEES7_PKcDpRKT_(ptr dead_on_unwind writable sret(%"class.std::__1::basic_string") align 8 %9, ptr noundef %34, ptr noundef nonnull align 8 dereferenceable(24) %35)
  invoke void @_ZN7mitsuba6Logger3logENS_8LogLevelEPKNS_5ClassEPKciRKNSt3__112basic_stringIcNS7_11char_traitsIcEENS7_9allocatorIcEEEE(ptr noundef nonnull align 8 dereferenceable(24) %29, i32 noundef %30, ptr noundef %31, ptr noundef %32, i32 noundef %33, ptr noundef nonnull align 8 dereferenceable(24) %9)
          to label %36 unwind label %37

36:                                               ; preds = %28
  call void @_ZNSt3__112basic_stringIcNS_11char_traitsIcEENS_9allocatorIcEEED1Ev(ptr noundef nonnull align 8 dereferenceable(24) %9) #2
  br label %45

37:                                               ; preds = %28
  %38 = landingpad { ptr, i32 }
          cleanup
  %39 = extractvalue { ptr, i32 } %38, 0
  store ptr %39, ptr %10, align 8
  %40 = extractvalue { ptr, i32 } %38, 1
  store i32 %40, ptr %11, align 4
  call void @_ZNSt3__112basic_stringIcNS_11char_traitsIcEENS_9allocatorIcEEED1Ev(ptr noundef nonnull align 8 dereferenceable(24) %9) #2
  %41 = load ptr, ptr %10, align 8
  %42 = load i32, ptr %11, align 4
  %43 = insertvalue { ptr, i32 } poison, ptr %41, 0
  %44 = insertvalue { ptr, i32 } %43, i32 %42, 1
  resume { ptr, i32 } %44

45:                                               ; preds = %36, %23, %14
  br label %46

46:                                               ; preds = %45
  %47 = getelementptr inbounds %"class.mitsuba::Thread", ptr %13, i32 0, i32 1
  %48 = call noundef ptr @_ZNKSt3__110unique_ptrIN7mitsuba6Thread13ThreadPrivateENS_14default_deleteIS3_EEEptB8ne190000Ev(ptr noundef nonnull align 8 dereferenceable(8) %47) #2
  %49 = getelementptr inbounds %"struct.mitsuba::Thread::ThreadPrivate", ptr %48, i32 0, i32 3
  store i8 0, ptr %49, align 8
  %50 = call align 8 ptr @llvm.threadlocal.address.p0(ptr align 8 @_ZN7mitsubaL4selfE)
  store ptr null, ptr %50, align 8
  call void @_ZNK7mitsuba6Object7dec_refEb(ptr noundef nonnull align 8 dereferenceable(12) %13, i1 noundef zeroext true) #2
  ret void
}