; Function Attrs: uwtable
define void @_ZN7mitsuba6Thread4exitEv(ptr noundef nonnull align 8 dereferenceable(24) %0) local_unnamed_addr #16 align 2 personality ptr @__gxx_personality_v0 {
  %2 = alloca %"class.std::__1::basic_string", align 8
  %3 = load ptr, ptr @_ZN7mitsuba6Thread7m_classE, align 8
  %4 = getelementptr inbounds i8, ptr %0, i64 16
  %5 = load ptr, ptr %4, align 8
  %6 = getelementptr inbounds i8, ptr %5, i64 16
  %.b.i.i.i = load i1, ptr @__tls_guard, align 1
  br i1 %.b.i.i.i, label %_ZN7mitsuba6Thread6threadEv.exit, label %7, !prof !4

7:                                                ; preds = %1
  store i1 true, ptr @__tls_guard, align 1
  tail call fastcc void @__cxx_global_var_init.1()
  br label %_ZN7mitsuba6Thread6threadEv.exit

_ZN7mitsuba6Thread6threadEv.exit:                 ; preds = %1, %7
  %8 = tail call align 8 ptr @llvm.threadlocal.address.p0(ptr align 8 @_ZN7mitsubaL4selfE)
  %9 = load ptr, ptr %8, align 8
  %10 = getelementptr inbounds i8, ptr %9, i64 16
  %11 = load ptr, ptr %10, align 8
  %12 = getelementptr inbounds i8, ptr %11, i64 56
  %13 = load ptr, ptr %12, align 8
  %.not = icmp eq ptr %13, null
  br i1 %.not, label %22, label %14

14:                                               ; preds = %_ZN7mitsuba6Thread6threadEv.exit
  %15 = getelementptr inbounds i8, ptr %13, i64 12
  %16 = load i32, ptr %15, align 4
  %17 = icmp slt i32 %16, 101
  br i1 %17, label %18, label %22

18:                                               ; preds = %14
  call void @_ZN10tinyformat6formatIJNSt3__112basic_stringIcNS1_11char_traitsIcEENS1_9allocatorIcEEEEEEES7_PKcDpRKT_(ptr dead_on_unwind nonnull writable sret(%"class.std::__1::basic_string") align 8 %2, ptr noundef nonnull @.str.15, ptr noundef nonnull align 8 dereferenceable(24) %6)
  invoke void @_ZN7mitsuba6Logger3logENS_8LogLevelEPKNS_5ClassEPKciRKNSt3__112basic_stringIcNS7_11char_traitsIcEENS7_9allocatorIcEEEE(ptr noundef nonnull align 8 dereferenceable(24) %13, i32 noundef 100, ptr noundef %3, ptr noundef nonnull @.str, i32 noundef 434, ptr noundef nonnull align 8 dereferenceable(24) %2)
          to label %19 unwind label %20

19:                                               ; preds = %18
  call void @_ZNSt3__112basic_stringIcNS_11char_traitsIcEENS_9allocatorIcEEED1Ev(ptr noundef nonnull align 8 dereferenceable(24) %2) #3
  br label %22

20:                                               ; preds = %18
  %21 = landingpad { ptr, i32 }
          cleanup
  call void @_ZNSt3__112basic_stringIcNS_11char_traitsIcEENS_9allocatorIcEEED1Ev(ptr noundef nonnull align 8 dereferenceable(24) %2) #3
  resume { ptr, i32 } %21

22:                                               ; preds = %_ZN7mitsuba6Thread6threadEv.exit, %14, %19
  %23 = load ptr, ptr %4, align 8
  %24 = getelementptr inbounds i8, ptr %23, i64 40
  store i8 0, ptr %24, align 8
  store ptr null, ptr %8, align 8
  call void @_ZNK7mitsuba6Object7dec_refEb(ptr noundef nonnull align 8 dereferenceable(12) %0, i1 noundef zeroext true) #3
  ret void
}